; Function Attrs: mustprogress nounwind uwtable
define void @_ZN5boost9container3pmr25monotonic_buffer_resourceC2EPvmPNS1_15memory_resourceE(ptr nocapture noundef nonnull writeonly align 8 dereferenceable(64) %0, ptr noundef %1, i64 noundef %2, ptr noundef %3) unnamed_addr #1 align 2 personality ptr @__gxx_personality_v0 {
  store ptr getelementptr inbounds inrange(-16, 40) (i8, ptr @_ZTVN5boost9container3pmr25monotonic_buffer_resourceE, i64 16), ptr %0, align 8, !tbaa !13
  %.not = icmp eq ptr %3, null
  br i1 %.not, label %5, label %7

5:                                                ; preds = %4
  %6 = tail call noundef ptr @_ZN5boost9container3pmr20get_default_resourceEv() #15
  br label %7

7:                                                ; preds = %4, %5
  %8 = phi ptr [ %6, %5 ], [ %3, %4 ]
  %9 = getelementptr inbounds nuw i8, ptr %0, i64 8
  store ptr null, ptr %9, align 8, !tbaa !15
  %10 = getelementptr inbounds nuw i8, ptr %0, i64 16
  store ptr %8, ptr %10, align 8, !tbaa !16
  %11 = getelementptr inbounds nuw i8, ptr %0, i64 24
  store ptr %1, ptr %11, align 8, !tbaa !17
  %12 = getelementptr inbounds nuw i8, ptr %0, i64 32
  store i64 %2, ptr %12, align 8, !tbaa !18
  %.sroa.speculated = tail call i64 @llvm.umax.i64(i64 %2, i64 256)
  %13 = tail call noundef range(i64 0, 65) i64 @llvm.ctlz.i64(i64 %.sroa.speculated, i1 true)
  %14 = xor i64 %13, 63
  %15 = getelementptr inbounds nuw i8, ptr %0, i64 40
  %16 = getelementptr inbounds nuw i8, ptr %0, i64 48
  store ptr %1, ptr %16, align 8, !tbaa !19
  %17 = getelementptr inbounds nuw i8, ptr %0, i64 56
  store i64 %2, ptr %17, align 8, !tbaa !20
  %18 = shl nuw i64 2, %14
  %.inv.i.not = icmp eq i64 %13, 0
  %spec.select.i = select i1 %.inv.i.not, i64 -1, i64 %18
  store i64 %spec.select.i, ptr %15, align 8, !tbaa !3
  ret void
}